target datalayout = "e-m:e-p270:32:32-p271:32:32-p272:64:64-i64:64-i128:128-f80:128-n8:16:32:64-S128"
target triple = "x86_64-pc-linux-gnu"

%struct.evws_connection = type { %struct.anon, ptr, ptr, ptr, ptr, ptr, ptr, ptr, i8 }
%struct.anon = type { ptr, ptr }
%struct.evhttp = type { %struct.anon.0, %struct.boundq, %struct.httpcbq, %struct.evconq, %struct.evwsq, i32, i32, %struct.vhostsq, %struct.aliasq, ptr, %struct.timeval, %struct.timeval, i64, i64, i32, ptr, i32, ptr, ptr, ptr, ptr, ptr, ptr, ptr, ptr, ptr, ptr }
%struct.anon.0 = type { ptr, ptr }
%struct.boundq = type { ptr, ptr }
%struct.httpcbq = type { ptr, ptr }
%struct.evconq = type { ptr, ptr }
%struct.evwsq = type { ptr, ptr }
%struct.vhostsq = type { ptr, ptr }
%struct.aliasq = type { ptr, ptr }
%struct.timeval = type { i64, i64 }

; Function Attrs: nounwind uwtable
define void @evws_connection_free(ptr noundef %0) #0 {
  %2 = alloca ptr, align 8
  %3 = alloca ptr, align 8
  store ptr %0, ptr %2, align 8
  %4 = load ptr, ptr %2, align 8
  %5 = getelementptr inbounds nuw %struct.evws_connection, ptr %4, i32 0, i32 4
  %6 = load ptr, ptr %5, align 8
  %7 = icmp ne ptr %6, null
  br i1 %7, label %8, label %16

8:                                                ; preds = %1
  %9 = load ptr, ptr %2, align 8
  %10 = getelementptr inbounds nuw %struct.evws_connection, ptr %9, i32 0, i32 4
  %11 = load ptr, ptr %10, align 8
  %12 = load ptr, ptr %2, align 8
  %13 = load ptr, ptr %2, align 8
  %14 = getelementptr inbounds nuw %struct.evws_connection, ptr %13, i32 0, i32 5
  %15 = load ptr, ptr %14, align 8
  call void %11(ptr noundef %12, ptr noundef %15)
  br label %16

16:                                               ; preds = %8, %1
  %17 = load ptr, ptr %2, align 8
  %18 = getelementptr inbounds nuw %struct.evws_connection, ptr %17, i32 0, i32 6
  %19 = load ptr, ptr %18, align 8
  %20 = icmp ne ptr %19, null
  br i1 %20, label %21, label %65

21:                                               ; preds = %16
  call void @llvm.lifetime.start.p0(i64 8, ptr %3) #8
  %22 = load ptr, ptr %2, align 8
  %23 = getelementptr inbounds nuw %struct.evws_connection, ptr %22, i32 0, i32 6
  %24 = load ptr, ptr %23, align 8
  store ptr %24, ptr %3, align 8
  br label %25

25:                                               ; preds = %21
  %26 = load ptr, ptr %2, align 8
  %27 = getelementptr inbounds nuw %struct.evws_connection, ptr %26, i32 0, i32 0
  %28 = getelementptr inbounds nuw %struct.anon, ptr %27, i32 0, i32 0
  %29 = load ptr, ptr %28, align 8
  %30 = icmp ne ptr %29, null
  br i1 %30, label %31, label %42

31:                                               ; preds = %25
  %32 = load ptr, ptr %2, align 8
  %33 = getelementptr inbounds nuw %struct.evws_connection, ptr %32, i32 0, i32 0
  %34 = getelementptr inbounds nuw %struct.anon, ptr %33, i32 0, i32 1
  %35 = load ptr, ptr %34, align 8
  %36 = load ptr, ptr %2, align 8
  %37 = getelementptr inbounds nuw %struct.evws_connection, ptr %36, i32 0, i32 0
  %38 = getelementptr inbounds nuw %struct.anon, ptr %37, i32 0, i32 0
  %39 = load ptr, ptr %38, align 8
  %40 = getelementptr inbounds nuw %struct.evws_connection, ptr %39, i32 0, i32 0
  %41 = getelementptr inbounds nuw %struct.anon, ptr %40, i32 0, i32 1
  store ptr %35, ptr %41, align 8
  br label %50

42:                                               ; preds = %25
  %43 = load ptr, ptr %2, align 8
  %44 = getelementptr inbounds nuw %struct.evws_connection, ptr %43, i32 0, i32 0
  %45 = getelementptr inbounds nuw %struct.anon, ptr %44, i32 0, i32 1
  %46 = load ptr, ptr %45, align 8
  %47 = load ptr, ptr %3, align 8
  %48 = getelementptr inbounds nuw %struct.evhttp, ptr %47, i32 0, i32 4
  %49 = getelementptr inbounds nuw %struct.evwsq, ptr %48, i32 0, i32 1
  store ptr %46, ptr %49, align 8
  br label %50

50:                                               ; preds = %42, %31
  %51 = load ptr, ptr %2, align 8
  %52 = getelementptr inbounds nuw %struct.evws_connection, ptr %51, i32 0, i32 0
  %53 = getelementptr inbounds nuw %struct.anon, ptr %52, i32 0, i32 0
  %54 = load ptr, ptr %53, align 8
  %55 = load ptr, ptr %2, align 8
  %56 = getelementptr inbounds nuw %struct.evws_connection, ptr %55, i32 0, i32 0
  %57 = getelementptr inbounds nuw %struct.anon, ptr %56, i32 0, i32 1
  %58 = load ptr, ptr %57, align 8
  store ptr %54, ptr %58, align 8
  br label %59

59:                                               ; preds = %50
  br label %60

60:                                               ; preds = %59
  %61 = load ptr, ptr %3, align 8
  %62 = getelementptr inbounds nuw %struct.evhttp, ptr %61, i32 0, i32 6
  %63 = load i32, ptr %62, align 4
  %64 = add nsw i32 %63, -1
  store i32 %64, ptr %62, align 4
  call void @llvm.lifetime.end.p0(i64 8, ptr %3) #8
  br label %65

65:                                               ; preds = %60, %16
  %66 = load ptr, ptr %2, align 8
  %67 = getelementptr inbounds nuw %struct.evws_connection, ptr %66, i32 0, i32 1
  %68 = load ptr, ptr %67, align 8
  %69 = icmp ne ptr %68, null
  br i1 %69, label %70, label %74

70:                                               ; preds = %65
  %71 = load ptr, ptr %2, align 8
  %72 = getelementptr inbounds nuw %struct.evws_connection, ptr %71, i32 0, i32 1
  %73 = load ptr, ptr %72, align 8
  call void @bufferevent_free(ptr noundef %73)
  br label %74

74:                                               ; preds = %70, %65
  %75 = load ptr, ptr %2, align 8
  %76 = getelementptr inbounds nuw %struct.evws_connection, ptr %75, i32 0, i32 7
  %77 = load ptr, ptr %76, align 8
  %78 = icmp ne ptr %77, null
  br i1 %78, label %79, label %83

79:                                               ; preds = %74
  %80 = load ptr, ptr %2, align 8
  %81 = getelementptr inbounds nuw %struct.evws_connection, ptr %80, i32 0, i32 7
  %82 = load ptr, ptr %81, align 8
  call void @evbuffer_free(ptr noundef %82)
  br label %83

83:                                               ; preds = %79, %74
  %84 = load ptr, ptr %2, align 8
  call void @event_mm_free_(ptr noundef %84)
  ret void
}