; Function Attrs: nounwind uwtable
define void @evws_connection_free(ptr noundef %0) local_unnamed_addr #0 {
  %2 = getelementptr inbounds nuw i8, ptr %0, i64 40
  %3 = load ptr, ptr %2, align 8
  %.not = icmp eq ptr %3, null
  br i1 %.not, label %7, label %4

4:                                                ; preds = %1
  %5 = getelementptr inbounds nuw i8, ptr %0, i64 48
  %6 = load ptr, ptr %5, align 8
  tail call void %3(ptr noundef nonnull %0, ptr noundef %6) #9
  br label %7

7:                                                ; preds = %4, %1
  %8 = getelementptr inbounds nuw i8, ptr %0, i64 56
  %9 = load ptr, ptr %8, align 8
  %.not23 = icmp eq ptr %9, null
  br i1 %.not23, label %23, label %10

10:                                               ; preds = %7
  %11 = load ptr, ptr %0, align 8
  %.not24 = icmp eq ptr %11, null
  %12 = getelementptr inbounds nuw i8, ptr %0, i64 8
  %13 = load ptr, ptr %12, align 8
  br i1 %.not24, label %16, label %14

14:                                               ; preds = %10
  %15 = getelementptr inbounds nuw i8, ptr %11, i64 8
  store ptr %13, ptr %15, align 8
  br label %18

16:                                               ; preds = %10
  %17 = getelementptr inbounds nuw i8, ptr %9, i64 72
  store ptr %13, ptr %17, align 8
  br label %18

18:                                               ; preds = %16, %14
  %19 = load ptr, ptr %0, align 8
  store ptr %19, ptr %13, align 8
  %20 = getelementptr inbounds nuw i8, ptr %9, i64 84
  %21 = load i32, ptr %20, align 4
  %22 = add nsw i32 %21, -1
  store i32 %22, ptr %20, align 4
  br label %23

23:                                               ; preds = %18, %7
  %24 = getelementptr inbounds nuw i8, ptr %0, i64 16
  %25 = load ptr, ptr %24, align 8
  %.not25 = icmp eq ptr %25, null
  br i1 %.not25, label %27, label %26

26:                                               ; preds = %23
  tail call void @bufferevent_free(ptr noundef nonnull %25) #9
  br label %27

27:                                               ; preds = %26, %23
  %28 = getelementptr inbounds nuw i8, ptr %0, i64 64
  %29 = load ptr, ptr %28, align 8
  %.not26 = icmp eq ptr %29, null
  br i1 %.not26, label %31, label %30

30:                                               ; preds = %27
  tail call void @evbuffer_free(ptr noundef nonnull %29) #9
  br label %31

31:                                               ; preds = %30, %27
  tail call void @event_mm_free_(ptr noundef nonnull %0) #9
  ret void
}